; Function Attrs: mustprogress nounwind uwtable
define dso_local noundef zeroext i1 @_ZN4llvm17VLIWResourceModel16reserveResourcesEPNS_5SUnitEb(ptr noundef nonnull align 8 dereferenceable(100) %0, ptr noundef %1, i1 noundef zeroext %2) unnamed_addr #0 align 2 {
  %.not = icmp eq ptr %1, null
  %4 = load ptr, ptr %0, align 8
  br i1 %.not, label %5, label %11

5:                                                ; preds = %3
  %6 = getelementptr inbounds i8, ptr %4, i64 16
  %7 = load ptr, ptr %6, align 8
  tail call void %7(ptr noundef nonnull align 8 dereferenceable(100) %0) #15
  %8 = getelementptr inbounds nuw i8, ptr %0, i64 96
  %9 = load i32, ptr %8, align 8
  %10 = add i32 %9, 1
  store i32 %10, ptr %8, align 8
  br label %49

11:                                               ; preds = %3
  %12 = getelementptr inbounds i8, ptr %4, i64 32
  %13 = load ptr, ptr %12, align 8
  %14 = tail call noundef zeroext i1 %13(ptr noundef nonnull align 8 dereferenceable(100) %0, ptr noundef nonnull %1, i1 noundef zeroext %2) #15
  br i1 %14, label %15, label %22

15:                                               ; preds = %11
  %16 = getelementptr inbounds nuw i8, ptr %0, i64 32
  %17 = tail call noundef i64 @_ZNK4llvm15SmallVectorBaseIjE4sizeEv(ptr noundef nonnull align 8 dereferenceable(16) %16) #15
  %18 = getelementptr inbounds nuw i8, ptr %0, i64 24
  %19 = load ptr, ptr %18, align 8
  %20 = load i32, ptr %19, align 8
  %21 = zext i32 %20 to i64
  %.not10 = icmp ult i64 %17, %21
  br i1 %.not10, label %29, label %22

22:                                               ; preds = %15, %11
  %23 = load ptr, ptr %0, align 8
  %24 = getelementptr inbounds i8, ptr %23, i64 16
  %25 = load ptr, ptr %24, align 8
  tail call void %25(ptr noundef nonnull align 8 dereferenceable(100) %0) #15
  %26 = getelementptr inbounds nuw i8, ptr %0, i64 96
  %27 = load i32, ptr %26, align 8
  %28 = add i32 %27, 1
  store i32 %28, ptr %26, align 8
  br label %29

29:                                               ; preds = %22, %15
  %.0 = phi i1 [ true, %22 ], [ false, %15 ]
  %30 = load ptr, ptr %1, align 8
  %31 = getelementptr inbounds nuw i8, ptr %30, i64 68
  %32 = load i16, ptr %31, align 4
  switch i16 %32, label %33 [
    i16 8, label %36
    i16 9, label %36
    i16 11, label %36
    i16 18, label %36
    i16 10, label %36
    i16 7, label %36
    i16 3, label %36
    i16 4, label %36
    i16 19, label %36
    i16 1, label %36
    i16 2, label %36
  ]

33:                                               ; preds = %29
  %34 = getelementptr inbounds nuw i8, ptr %0, i64 16
  %35 = load ptr, ptr %34, align 8
  tail call void @_ZN4llvm13DFAPacketizer16reserveResourcesERNS_12MachineInstrE(ptr noundef nonnull align 8 dereferenceable(72) %35, ptr noundef nonnull align 8 dereferenceable(70) %30) #15
  br label %36

36:                                               ; preds = %29, %29, %29, %29, %29, %29, %29, %29, %29, %29, %29, %33
  %37 = getelementptr inbounds nuw i8, ptr %0, i64 32
  %38 = tail call noundef i64 @_ZNK4llvm15SmallVectorBaseIjE4sizeEv(ptr noundef nonnull align 8 dereferenceable(16) %37) #15
  %39 = add i64 %38, 1
  %40 = tail call noundef i64 @_ZNK4llvm15SmallVectorBaseIjE8capacityEv(ptr noundef nonnull align 8 dereferenceable(16) %37) #15
  %.not.i.i.i = icmp ugt i64 %39, %40
  br i1 %.not.i.i.i, label %41, label %_ZN4llvm23SmallVectorTemplateBaseIPNS_5SUnitELb1EE9push_backES2_.exit

41:                                               ; preds = %36
  %42 = getelementptr inbounds i8, ptr %0, i64 48
  tail call void @_ZN4llvm15SmallVectorBaseIjE8grow_podEPvmm(ptr noundef nonnull align 8 dereferenceable(16) %37, ptr noundef nonnull %42, i64 noundef %39, i64 noundef 8) #15
  br label %_ZN4llvm23SmallVectorTemplateBaseIPNS_5SUnitELb1EE9push_backES2_.exit

_ZN4llvm23SmallVectorTemplateBaseIPNS_5SUnitELb1EE9push_backES2_.exit: ; preds = %36, %41
  %43 = load ptr, ptr %37, align 8
  %44 = tail call noundef i64 @_ZNK4llvm15SmallVectorBaseIjE4sizeEv(ptr noundef nonnull align 8 dereferenceable(16) %37) #15
  %45 = getelementptr inbounds ptr, ptr %43, i64 %44
  %46 = ptrtoint ptr %1 to i64
  store i64 %46, ptr %45, align 1
  %47 = tail call noundef i64 @_ZNK4llvm15SmallVectorBaseIjE4sizeEv(ptr noundef nonnull align 8 dereferenceable(16) %37) #15
  %48 = add i64 %47, 1
  tail call void @_ZN4llvm15SmallVectorBaseIjE8set_sizeEm(ptr noundef nonnull align 8 dereferenceable(16) %37, i64 noundef %48) #15
  br label %49

49:                                               ; preds = %_ZN4llvm23SmallVectorTemplateBaseIPNS_5SUnitELb1EE9push_backES2_.exit, %5
  %.08 = phi i1 [ %.0, %_ZN4llvm23SmallVectorTemplateBaseIPNS_5SUnitELb1EE9push_backES2_.exit ], [ false, %5 ]
  ret i1 %.08
}